target datalayout = "e-m:e-p270:32:32-p271:32:32-p272:64:64-i64:64-i128:128-f80:128-n8:16:32:64-S128"
target triple = "x86_64-pc-linux-gnu"

%struct.buf_t = type { i32, ptr, i32, i32, i8, i8 }

@.str.1 = private unnamed_addr constant [7 x i8] c"pack.c\00", align 1
@.str.15 = private unnamed_addr constant [49 x i8] c"%s: Buffer to be unpacked is too large (%u > %u)\00", align 1
@__func__.unpackstr_xmalloc_escaped = private unnamed_addr constant [26 x i8] c"unpackstr_xmalloc_escaped\00", align 1

; Function Attrs: inlinehint nounwind uwtable
define internal i32 @__bswap_32(i32 noundef %0) #8 {
  %2 = alloca i32, align 4
  store i32 %0, ptr %2, align 4
  %3 = load i32, ptr %2, align 4
  %4 = and i32 %3, -16777216
  %5 = lshr i32 %4, 24
  %6 = load i32, ptr %2, align 4
  %7 = and i32 %6, 16711680
  %8 = lshr i32 %7, 8
  %9 = or i32 %5, %8
  %10 = load i32, ptr %2, align 4
  %11 = and i32 %10, 65280
  %12 = shl i32 %11, 8
  %13 = or i32 %9, %12
  %14 = load i32, ptr %2, align 4
  %15 = and i32 %14, 255
  %16 = shl i32 %15, 24
  %17 = or i32 %13, %16
  ret i32 %17
}

; Function Attrs: nounwind uwtable
define dso_local i32 @unpack32(ptr noundef %0, ptr noundef %1) #0 {
  %3 = alloca i32, align 4
  %4 = alloca ptr, align 8
  %5 = alloca ptr, align 8
  %6 = alloca i32, align 4
  %7 = alloca i32, align 4
  store ptr %0, ptr %4, align 8
  store ptr %1, ptr %5, align 8
  call void @llvm.lifetime.start.p0(i64 4, ptr %6) #9
  %8 = load ptr, ptr %5, align 8
  %9 = getelementptr inbounds nuw %struct.buf_t, ptr %8, i32 0, i32 2
  %10 = load i32, ptr %9, align 8
  %11 = load ptr, ptr %5, align 8
  %12 = getelementptr inbounds nuw %struct.buf_t, ptr %11, i32 0, i32 3
  %13 = load i32, ptr %12, align 4
  %14 = sub i32 %10, %13
  %15 = zext i32 %14 to i64
  %16 = icmp ult i64 %15, 4
  br i1 %16, label %17, label %18

17:                                               ; preds = %2
  store i32 -1, ptr %3, align 4
  store i32 1, ptr %7, align 4
  br label %36

18:                                               ; preds = %2
  %19 = load ptr, ptr %5, align 8
  %20 = getelementptr inbounds nuw %struct.buf_t, ptr %19, i32 0, i32 1
  %21 = load ptr, ptr %20, align 8
  %22 = load ptr, ptr %5, align 8
  %23 = getelementptr inbounds nuw %struct.buf_t, ptr %22, i32 0, i32 3
  %24 = load i32, ptr %23, align 4
  %25 = zext i32 %24 to i64
  %26 = getelementptr inbounds nuw i8, ptr %21, i64 %25
  call void @llvm.memcpy.p0.p0.i64(ptr align 4 %6, ptr align 1 %26, i64 4, i1 false)
  %27 = load i32, ptr %6, align 4
  %28 = call i32 @__bswap_32(i32 noundef %27)
  %29 = load ptr, ptr %4, align 8
  store i32 %28, ptr %29, align 4
  %30 = load ptr, ptr %5, align 8
  %31 = getelementptr inbounds nuw %struct.buf_t, ptr %30, i32 0, i32 3
  %32 = load i32, ptr %31, align 4
  %33 = zext i32 %32 to i64
  %34 = add i64 %33, 4
  %35 = trunc i64 %34 to i32
  store i32 %35, ptr %31, align 4
  store i32 0, ptr %3, align 4
  store i32 1, ptr %7, align 4
  br label %36

36:                                               ; preds = %18, %17
  call void @llvm.lifetime.end.p0(i64 4, ptr %6) #9
  %37 = load i32, ptr %3, align 4
  ret i32 %37
}

; Function Attrs: nounwind uwtable
define dso_local i32 @unpackstr_xmalloc_escaped(ptr noundef %0, ptr noundef %1, ptr noundef %2) #0 {
  %4 = alloca i32, align 4
  %5 = alloca ptr, align 8
  %6 = alloca ptr, align 8
  %7 = alloca ptr, align 8
  %8 = alloca i32, align 4
  %9 = alloca ptr, align 8
  %10 = alloca ptr, align 8
  %11 = alloca i8, align 1
  %12 = alloca i32, align 4
  %13 = alloca i64, align 8
  %14 = alloca i32, align 4
  store ptr %0, ptr %5, align 8
  store ptr %1, ptr %6, align 8
  store ptr %2, ptr %7, align 8
  call void @llvm.lifetime.start.p0(i64 4, ptr %8) #9
  call void @llvm.lifetime.start.p0(i64 8, ptr %9) #9
  store ptr null, ptr %9, align 8
  call void @llvm.lifetime.start.p0(i64 8, ptr %10) #9
  call void @llvm.lifetime.start.p0(i64 1, ptr %11) #9
  %15 = load ptr, ptr %5, align 8
  store ptr null, ptr %15, align 8
  br label %16

16:                                               ; preds = %3
  %17 = load ptr, ptr %6, align 8
  %18 = load ptr, ptr %7, align 8
  %19 = call i32 @unpack32(ptr noundef %17, ptr noundef %18)
  %20 = icmp ne i32 %19, 0
  br i1 %20, label %21, label %22

21:                                               ; preds = %16
  br label %125

22:                                               ; preds = %16
  br label %23

23:                                               ; preds = %22
  br label %24

24:                                               ; preds = %23
  %25 = load ptr, ptr %6, align 8
  %26 = load i32, ptr %25, align 4
  %27 = icmp ne i32 %26, 0
  br i1 %27, label %29, label %28

28:                                               ; preds = %24
  store i32 0, ptr %4, align 4
  store i32 1, ptr %12, align 4
  br label %127

29:                                               ; preds = %24
  %30 = load ptr, ptr %6, align 8
  %31 = load i32, ptr %30, align 4
  %32 = icmp ugt i32 %31, 1073741824
  br i1 %32, label %33, label %37

33:                                               ; preds = %29
  %34 = load ptr, ptr %6, align 8
  %35 = load i32, ptr %34, align 4
  %36 = call i32 (ptr, ...) @error(ptr noundef @.str.15, ptr noundef @__func__.unpackstr_xmalloc_escaped, i32 noundef %35, i32 noundef 1073741824)
  store i32 -1, ptr %4, align 4
  store i32 1, ptr %12, align 4
  br label %127

37:                                               ; preds = %29
  %38 = load ptr, ptr %6, align 8
  %39 = load i32, ptr %38, align 4
  store i32 %39, ptr %8, align 4
  %40 = load ptr, ptr %7, align 8
  %41 = getelementptr inbounds nuw %struct.buf_t, ptr %40, i32 0, i32 2
  %42 = load i32, ptr %41, align 8
  %43 = load ptr, ptr %7, align 8
  %44 = getelementptr inbounds nuw %struct.buf_t, ptr %43, i32 0, i32 3
  %45 = load i32, ptr %44, align 4
  %46 = sub i32 %42, %45
  %47 = load i32, ptr %8, align 4
  %48 = icmp ult i32 %46, %47
  br i1 %48, label %49, label %50

49:                                               ; preds = %37
  store i32 -1, ptr %4, align 4
  store i32 1, ptr %12, align 4
  br label %127

50:                                               ; preds = %37
  br label %51

51:                                               ; preds = %50
  call void @llvm.lifetime.start.p0(i64 8, ptr %13) #9
  %52 = load i32, ptr %8, align 4
  %53 = mul i32 %52, 2
  %54 = add i32 %53, 1
  %55 = zext i32 %54 to i64
  store i64 %55, ptr %13, align 8
  %56 = load i64, ptr %13, align 8
  %57 = icmp ne i64 %56, 0
  br i1 %57, label %60, label %58

58:                                               ; preds = %51
  %59 = load ptr, ptr %5, align 8
  store ptr null, ptr %59, align 8
  br label %67

60:                                               ; preds = %51
  %61 = load i64, ptr %13, align 8
  %62 = call ptr @slurm_xcalloc(i64 noundef 1, i64 noundef %61, i1 noundef zeroext true, i1 noundef zeroext true, ptr noundef @.str.1, i32 noundef 1017, ptr noundef @__func__.unpackstr_xmalloc_escaped)
  %63 = load ptr, ptr %5, align 8
  store ptr %62, ptr %63, align 8
  %64 = icmp ne ptr %62, null
  br i1 %64, label %66, label %65

65:                                               ; preds = %60
  store i32 4, ptr %12, align 4
  br label %68

66:                                               ; preds = %60
  br label %67

67:                                               ; preds = %66, %58
  store i32 0, ptr %12, align 4
  br label %68

68:                                               ; preds = %65, %67
  call void @llvm.lifetime.end.p0(i64 8, ptr %13) #9
  %69 = load i32, ptr %12, align 4
  switch i32 %69, label %127 [
    i32 0, label %70
    i32 4, label %125
  ]

70:                                               ; preds = %68
  br label %71

71:                                               ; preds = %70
  br label %72

72:                                               ; preds = %71
  %73 = load ptr, ptr %5, align 8
  %74 = load ptr, ptr %73, align 8
  store ptr %74, ptr %9, align 8
  %75 = load ptr, ptr %7, align 8
  %76 = getelementptr inbounds nuw %struct.buf_t, ptr %75, i32 0, i32 1
  %77 = load ptr, ptr %76, align 8
  %78 = load ptr, ptr %7, align 8
  %79 = getelementptr inbounds nuw %struct.buf_t, ptr %78, i32 0, i32 3
  %80 = load i32, ptr %79, align 4
  %81 = zext i32 %80 to i64
  %82 = getelementptr inbounds nuw i8, ptr %77, i64 %81
  store ptr %82, ptr %10, align 8
  call void @llvm.lifetime.start.p0(i64 4, ptr %14) #9
  store i32 0, ptr %14, align 4
  br label %83

83:                                               ; preds = %116, %72
  %84 = load i32, ptr %14, align 4
  %85 = load i32, ptr %8, align 4
  %86 = icmp ult i32 %84, %85
  br i1 %86, label %87, label %92

87:                                               ; preds = %83
  %88 = load ptr, ptr %10, align 8
  %89 = load i8, ptr %88, align 1
  %90 = sext i8 %89 to i32
  %91 = icmp ne i32 %90, 0
  br label %92

92:                                               ; preds = %87, %83
  %93 = phi i1 [ false, %83 ], [ %91, %87 ]
  br i1 %93, label %95, label %94

94:                                               ; preds = %92
  store i32 7, ptr %12, align 4
  call void @llvm.lifetime.end.p0(i64 4, ptr %14) #9
  br label %119

95:                                               ; preds = %92
  %96 = load ptr, ptr %10, align 8
  %97 = getelementptr inbounds nuw i8, ptr %96, i32 1
  store ptr %97, ptr %10, align 8
  %98 = load i8, ptr %96, align 1
  store i8 %98, ptr %11, align 1
  %99 = load i8, ptr %11, align 1
  %100 = sext i8 %99 to i32
  %101 = icmp eq i32 %100, 92
  br i1 %101, label %106, label %102

102:                                              ; preds = %95
  %103 = load i8, ptr %11, align 1
  %104 = sext i8 %103 to i32
  %105 = icmp eq i32 %104, 39
  br i1 %105, label %106, label %112

106:                                              ; preds = %102, %95
  %107 = load ptr, ptr %9, align 8
  %108 = getelementptr inbounds nuw i8, ptr %107, i32 1
  store ptr %108, ptr %9, align 8
  store i8 92, ptr %107, align 1
  %109 = load ptr, ptr %6, align 8
  %110 = load i32, ptr %109, align 4
  %111 = add i32 %110, 1
  store i32 %111, ptr %109, align 4
  br label %112

112:                                              ; preds = %106, %102
  %113 = load i8, ptr %11, align 1
  %114 = load ptr, ptr %9, align 8
  %115 = getelementptr inbounds nuw i8, ptr %114, i32 1
  store ptr %115, ptr %9, align 8
  store i8 %113, ptr %114, align 1
  br label %116

116:                                              ; preds = %112
  %117 = load i32, ptr %14, align 4
  %118 = add i32 %117, 1
  store i32 %118, ptr %14, align 4
  br label %83, !llvm.loop !16

119:                                              ; preds = %94
  %120 = load i32, ptr %8, align 4
  %121 = load ptr, ptr %7, align 8
  %122 = getelementptr inbounds nuw %struct.buf_t, ptr %121, i32 0, i32 3
  %123 = load i32, ptr %122, align 4
  %124 = add i32 %123, %120
  store i32 %124, ptr %122, align 4
  store i32 0, ptr %4, align 4
  store i32 1, ptr %12, align 4
  br label %127

125:                                              ; preds = %68, %21
  %126 = load ptr, ptr %6, align 8
  store i32 0, ptr %126, align 4
  store i32 -1, ptr %4, align 4
  store i32 1, ptr %12, align 4
  br label %127

127:                                              ; preds = %125, %119, %68, %49, %33, %28
  call void @llvm.lifetime.end.p0(i64 1, ptr %11) #9
  call void @llvm.lifetime.end.p0(i64 8, ptr %10) #9
  call void @llvm.lifetime.end.p0(i64 8, ptr %9) #9
  call void @llvm.lifetime.end.p0(i64 4, ptr %8) #9
  %128 = load i32, ptr %4, align 4
  ret i32 %128
}