; Function Attrs: nounwind uwtable
define dso_local range(i32 -1, 1) i32 @unpackstr_xmalloc_escaped(ptr noundef writeonly captures(none) initializes((0, 8)) %0, ptr noundef captures(none) initializes((0, 4)) %1, ptr noundef captures(none) %2) #0 {
  store ptr null, ptr %0, align 8
  %4 = getelementptr inbounds nuw i8, ptr %2, i64 16
  %5 = load i32, ptr %4, align 8
  %6 = getelementptr inbounds nuw i8, ptr %2, i64 20
  %7 = load i32, ptr %6, align 4
  %8 = sub i32 %5, %7
  %9 = icmp ult i32 %8, 4
  br i1 %9, label %unpack32.exit, label %10

10:                                               ; preds = %3
  %11 = getelementptr inbounds nuw i8, ptr %2, i64 8
  %12 = load ptr, ptr %11, align 8
  %13 = zext i32 %7 to i64
  %14 = getelementptr inbounds nuw i8, ptr %12, i64 %13
  %.0.copyload.i = load i32, ptr %14, align 1
  %15 = tail call noundef i32 @llvm.bswap.i32(i32 %.0.copyload.i)
  store i32 %15, ptr %1, align 4
  %16 = load i32, ptr %6, align 4
  %17 = add i32 %16, 4
  store i32 %17, ptr %6, align 4
  %18 = load i32, ptr %1, align 4
  %.not41 = icmp eq i32 %18, 0
  br i1 %.not41, label %50, label %19

19:                                               ; preds = %10
  %20 = icmp ugt i32 %18, 1073741824
  br i1 %20, label %21, label %23

21:                                               ; preds = %19
  %22 = tail call i32 (ptr, ...) @error(ptr noundef nonnull @.str.15, ptr noundef nonnull @__func__.unpackstr_xmalloc_escaped, i32 noundef %18, i32 noundef 1073741824) #14
  br label %50

23:                                               ; preds = %19
  %24 = load i32, ptr %4, align 8
  %25 = sub i32 %24, %17
  %26 = icmp ult i32 %25, %18
  br i1 %26, label %50, label %27

27:                                               ; preds = %23
  %28 = shl nuw i32 %18, 1
  %29 = or disjoint i32 %28, 1
  %30 = zext i32 %29 to i64
  %31 = tail call ptr @slurm_xcalloc(i64 noundef 1, i64 noundef %30, i1 noundef zeroext true, i1 noundef zeroext true, ptr noundef nonnull @.str.1, i32 noundef 1017, ptr noundef nonnull @__func__.unpackstr_xmalloc_escaped) #14
  store ptr %31, ptr %0, align 8
  %.not42 = icmp eq ptr %31, null
  br i1 %.not42, label %unpack32.exit, label %32

32:                                               ; preds = %27
  %33 = load ptr, ptr %11, align 8
  %34 = load i32, ptr %6, align 4
  %35 = zext i32 %34 to i64
  %36 = getelementptr inbounds nuw i8, ptr %33, i64 %35
  br label %37

37:                                               ; preds = %32, %47
  %.048 = phi i32 [ 0, %32 ], [ %49, %47 ]
  %.03747 = phi ptr [ %31, %32 ], [ %48, %47 ]
  %.03846 = phi ptr [ %36, %32 ], [ %42, %47 ]
  %38 = load i8, ptr %.03846, align 1
  %.not43 = icmp eq i8 %38, 0
  br i1 %.not43, label %.critedge, label %41

.critedge:                                        ; preds = %47, %37
  %39 = load i32, ptr %6, align 4
  %40 = add i32 %39, %18
  store i32 %40, ptr %6, align 4
  br label %50

41:                                               ; preds = %37
  %42 = getelementptr inbounds nuw i8, ptr %.03846, i64 1
  switch i8 %38, label %47 [
    i8 92, label %43
    i8 39, label %43
  ]

43:                                               ; preds = %41, %41
  %44 = getelementptr inbounds nuw i8, ptr %.03747, i64 1
  store i8 92, ptr %.03747, align 1
  %45 = load i32, ptr %1, align 4
  %46 = add i32 %45, 1
  store i32 %46, ptr %1, align 4
  br label %47

47:                                               ; preds = %41, %43
  %.1 = phi ptr [ %44, %43 ], [ %.03747, %41 ]
  %48 = getelementptr inbounds nuw i8, ptr %.1, i64 1
  store i8 %38, ptr %.1, align 1
  %49 = add nuw i32 %.048, 1
  %exitcond.not = icmp eq i32 %49, %18
  br i1 %exitcond.not, label %.critedge, label %37, !llvm.loop !16

unpack32.exit:                                    ; preds = %3, %27
  store i32 0, ptr %1, align 4
  br label %50

50:                                               ; preds = %23, %10, %unpack32.exit, %.critedge, %21
  %.035 = phi i32 [ -1, %unpack32.exit ], [ -1, %21 ], [ 0, %.critedge ], [ 0, %10 ], [ -1, %23 ]
  ret i32 %.035
}